; ModuleID = '61/1468.c'
source_filename = "61/1468.c"
target datalayout = "e-m:e-p270:32:32-p271:32:32-p272:64:64-i64:64-f80:128-n8:16:32:64-S128"
target triple = "x86_64-pc-linux-gnu"

@.str = private unnamed_addr constant [3 x i8] c"%d\00", align 1
@.str.1 = private unnamed_addr constant [4 x i8] c"%d\0A\00", align 1

; Function Attrs: noinline nounwind uwtable
define dso_local i32 @main() #0 {
  %1 = alloca i32, align 4
  %2 = alloca [10000 x i32], align 16
  %3 = alloca [10000 x i32], align 16
  %4 = alloca i32, align 4
  %5 = alloca i32, align 4
  store i32 0, i32* %1, align 4
  %6 = call i32 (i8*, ...) @__isoc99_scanf(i8* getelementptr inbounds ([3 x i8], [3 x i8]* @.str, i64 0, i64 0), i32* %5)
  store i32 0, i32* %4, align 4
  br label %7

7:                                                ; preds = %29, %0
  %8 = load i32, i32* %4, align 4
  %9 = load i32, i32* %5, align 4
  %10 = icmp slt i32 %8, %9
  br i1 %10, label %11, label %32

11:                                               ; preds = %7
  %12 = load i32, i32* %4, align 4
  %13 = sext i32 %12 to i64
  %14 = getelementptr inbounds [10000 x i32], [10000 x i32]* %2, i64 0, i64 %13
  %15 = call i32 (i8*, ...) @__isoc99_scanf(i8* getelementptr inbounds ([3 x i8], [3 x i8]* @.str, i64 0, i64 0), i32* %14)
  %16 = load i32, i32* %4, align 4
  %17 = sext i32 %16 to i64
  %18 = getelementptr inbounds [10000 x i32], [10000 x i32]* %2, i64 0, i64 %17
  %19 = load i32, i32* %18, align 4
  %20 = call i32 @f(i32 %19)
  %21 = load i32, i32* %4, align 4
  %22 = sext i32 %21 to i64
  %23 = getelementptr inbounds [10000 x i32], [10000 x i32]* %3, i64 0, i64 %22
  store i32 %20, i32* %23, align 4
  %24 = load i32, i32* %4, align 4
  %25 = sext i32 %24 to i64
  %26 = getelementptr inbounds [10000 x i32], [10000 x i32]* %3, i64 0, i64 %25
  %27 = load i32, i32* %26, align 4
  %28 = call i32 (i8*, ...) @printf(i8* getelementptr inbounds ([4 x i8], [4 x i8]* @.str.1, i64 0, i64 0), i32 %27)
  br label %29

29:                                               ; preds = %11
  %30 = load i32, i32* %4, align 4
  %31 = add nsw i32 %30, 1
  store i32 %31, i32* %4, align 4
  br label %7

32:                                               ; preds = %7
  ret i32 0
}

declare dso_local i32 @__isoc99_scanf(i8*, ...) #1

; Function Attrs: noinline nounwind uwtable
define dso_local i32 @f(i32 %0) #0 {
  %2 = alloca i32, align 4
  %3 = alloca [100000 x i32], align 16
  %4 = alloca i32, align 4
  store i32 %0, i32* %2, align 4
  %5 = getelementptr inbounds [100000 x i32], [100000 x i32]* %3, i64 0, i64 1
  store i32 1, i32* %5, align 4
  %6 = getelementptr inbounds [100000 x i32], [100000 x i32]* %3, i64 0, i64 2
  store i32 1, i32* %6, align 8
  %7 = load i32, i32* %2, align 4
  %8 = icmp sgt i32 %7, 2
  br i1 %8, label %9, label %33

9:                                                ; preds = %1
  store i32 3, i32* %4, align 4
  br label %10

10:                                               ; preds = %29, %9
  %11 = load i32, i32* %4, align 4
  %12 = load i32, i32* %2, align 4
  %13 = icmp sle i32 %11, %12
  br i1 %13, label %14, label %32

14:                                               ; preds = %10
  %15 = load i32, i32* %4, align 4
  %16 = sub nsw i32 %15, 1
  %17 = sext i32 %16 to i64
  %18 = getelementptr inbounds [100000 x i32], [100000 x i32]* %3, i64 0, i64 %17
  %19 = load i32, i32* %18, align 4
  %20 = load i32, i32* %4, align 4
  %21 = sub nsw i32 %20, 2
  %22 = sext i32 %21 to i64
  %23 = getelementptr inbounds [100000 x i32], [100000 x i32]* %3, i64 0, i64 %22
  %24 = load i32, i32* %23, align 4
  %25 = add nsw i32 %19, %24
  %26 = load i32, i32* %4, align 4
  %27 = sext i32 %26 to i64
  %28 = getelementptr inbounds [100000 x i32], [100000 x i32]* %3, i64 0, i64 %27
  store i32 %25, i32* %28, align 4
  br label %29

29:                                               ; preds = %14
  %30 = load i32, i32* %4, align 4
  %31 = add nsw i32 %30, 1
  store i32 %31, i32* %4, align 4
  br label %10

32:                                               ; preds = %10
  br label %33

33:                                               ; preds = %32, %1
  %34 = load i32, i32* %2, align 4
  %35 = sext i32 %34 to i64
  %36 = getelementptr inbounds [100000 x i32], [100000 x i32]* %3, i64 0, i64 %35
  %37 = load i32, i32* %36, align 4
  ret i32 %37
}

declare dso_local i32 @printf(i8*, ...) #1


!llvm.module.flags = !{!0}
!llvm.ident = !{!1}

!0 = !{i32 1, !"wchar_size", i32 4}
!1 = !{!"clang version 10.0.0-4ubuntu1 "}
